target datalayout = "e-m:e-p270:32:32-p271:32:32-p272:64:64-i64:64-i128:128-f80:128-n8:16:32:64-S128"
target triple = "x86_64-pc-linux-gnu"

%struct.SResource = type { ptr, i8, i8, i32, i32, i32, i32, i32, ptr, %struct.UString }
%struct.UString = type { ptr, i32, i32 }
%class.BinaryResource = type { %struct.SResource, i32, ptr, ptr }

@_ZL14gFormatVersion = internal global i32 3, align 4

; Function Attrs: inlinehint mustprogress nounwind uwtable
define internal noundef signext i8 @_ZL9U_FAILURE10UErrorCode(i32 noundef %0) #9 {
  %2 = alloca i32, align 4
  store i32 %0, ptr %2, align 4, !tbaa !45
  %3 = load i32, ptr %2, align 4, !tbaa !45
  %4 = icmp sgt i32 %3, 0
  %5 = zext i1 %4 to i8
  ret i8 %5
}

; Function Attrs: mustprogress uwtable
define dso_local void @_ZN14BinaryResourceC2EP7SRBRootPKcjPhS3_PK7UStringR10UErrorCode(ptr noundef nonnull align 8 dereferenceable(80) %0, ptr noundef %1, ptr noundef %2, i32 noundef %3, ptr noundef %4, ptr noundef %5, ptr noundef %6, ptr noundef nonnull align 4 dereferenceable(4) %7) unnamed_addr #5 align 2 personality ptr @__gxx_personality_v0 {
  %9 = alloca ptr, align 8
  %10 = alloca ptr, align 8
  %11 = alloca ptr, align 8
  %12 = alloca i32, align 4
  %13 = alloca ptr, align 8
  %14 = alloca ptr, align 8
  %15 = alloca ptr, align 8
  %16 = alloca ptr, align 8
  %17 = alloca ptr, align 8
  %18 = alloca i32, align 4
  store ptr %0, ptr %9, align 8, !tbaa !97
  store ptr %1, ptr %10, align 8, !tbaa !39
  store ptr %2, ptr %11, align 8, !tbaa !41
  store i32 %3, ptr %12, align 4, !tbaa !23
  store ptr %4, ptr %13, align 8, !tbaa !41
  store ptr %5, ptr %14, align 8, !tbaa !41
  store ptr %6, ptr %15, align 8, !tbaa !42
  store ptr %7, ptr %16, align 8, !tbaa !44
  %19 = load ptr, ptr %9, align 8
  %20 = load ptr, ptr %10, align 8, !tbaa !39
  %21 = load ptr, ptr %11, align 8, !tbaa !41
  %22 = load ptr, ptr %15, align 8, !tbaa !42
  %23 = load ptr, ptr %16, align 8, !tbaa !44
  call void @_ZN9SResourceC2EP7SRBRootPKcaPK7UStringR10UErrorCode(ptr noundef nonnull align 8 dereferenceable(56) %19, ptr noundef %20, ptr noundef %21, i8 noundef signext 1, ptr noundef %22, ptr noundef nonnull align 4 dereferenceable(4) %23)
  store ptr getelementptr inbounds inrange(-16, 64) ({ [10 x ptr] }, ptr @_ZTV14BinaryResource, i32 0, i32 0, i32 2), ptr %19, align 8, !tbaa !26
  %24 = getelementptr inbounds nuw %class.BinaryResource, ptr %19, i32 0, i32 1
  %25 = load i32, ptr %12, align 4, !tbaa !23
  store i32 %25, ptr %24, align 8, !tbaa !99
  %26 = getelementptr inbounds nuw %class.BinaryResource, ptr %19, i32 0, i32 2
  store ptr null, ptr %26, align 8, !tbaa !101
  %27 = getelementptr inbounds nuw %class.BinaryResource, ptr %19, i32 0, i32 3
  store ptr null, ptr %27, align 8, !tbaa !102
  %28 = load ptr, ptr %16, align 8, !tbaa !44
  %29 = load i32, ptr %28, align 4, !tbaa !45
  %30 = invoke noundef signext i8 @_ZL9U_FAILURE10UErrorCode(i32 noundef %29)
          to label %31 unwind label %34

31:                                               ; preds = %8
  %32 = icmp ne i8 %30, 0
  br i1 %32, label %33, label %38

33:                                               ; preds = %31
  br label %93

34:                                               ; preds = %66, %46, %8
  %35 = landingpad { ptr, i32 }
          cleanup
  %36 = extractvalue { ptr, i32 } %35, 0
  store ptr %36, ptr %17, align 8
  %37 = extractvalue { ptr, i32 } %35, 1
  store i32 %37, ptr %18, align 4
  call void @_ZN9SResourceD2Ev(ptr noundef nonnull align 8 dereferenceable(56) %19) #3
  br label %94

38:                                               ; preds = %31
  %39 = load ptr, ptr %14, align 8, !tbaa !41
  %40 = icmp ne ptr %39, null
  br i1 %40, label %41, label %63

41:                                               ; preds = %38
  %42 = load ptr, ptr %14, align 8, !tbaa !41
  %43 = load i8, ptr %42, align 1, !tbaa !22
  %44 = sext i8 %43 to i32
  %45 = icmp ne i32 %44, 0
  br i1 %45, label %46, label %63

46:                                               ; preds = %41
  %47 = load ptr, ptr %14, align 8, !tbaa !41
  %48 = call i64 @strlen(ptr noundef %47) #22
  %49 = add i64 %48, 1
  %50 = invoke noalias noundef nonnull ptr @_Znam(i64 noundef %49) #24
          to label %51 unwind label %34

51:                                               ; preds = %46
  %52 = getelementptr inbounds nuw %class.BinaryResource, ptr %19, i32 0, i32 3
  store ptr %50, ptr %52, align 8, !tbaa !102
  %53 = getelementptr inbounds nuw %class.BinaryResource, ptr %19, i32 0, i32 3
  %54 = load ptr, ptr %53, align 8, !tbaa !102
  %55 = icmp eq ptr %54, null
  br i1 %55, label %56, label %58

56:                                               ; preds = %51
  %57 = load ptr, ptr %16, align 8, !tbaa !44
  store i32 7, ptr %57, align 4, !tbaa !45
  br label %93

58:                                               ; preds = %51
  %59 = getelementptr inbounds nuw %class.BinaryResource, ptr %19, i32 0, i32 3
  %60 = load ptr, ptr %59, align 8, !tbaa !102
  %61 = load ptr, ptr %14, align 8, !tbaa !41
  %62 = call ptr @strcpy(ptr noundef %60, ptr noundef %61) #3
  br label %63

63:                                               ; preds = %58, %41, %38
  %64 = load i32, ptr %12, align 4, !tbaa !23
  %65 = icmp ugt i32 %64, 0
  br i1 %65, label %66, label %86

66:                                               ; preds = %63
  %67 = load i32, ptr %12, align 4, !tbaa !23
  %68 = zext i32 %67 to i64
  %69 = invoke noalias noundef nonnull ptr @_Znam(i64 noundef %68) #24
          to label %70 unwind label %34

70:                                               ; preds = %66
  %71 = getelementptr inbounds nuw %class.BinaryResource, ptr %19, i32 0, i32 2
  store ptr %69, ptr %71, align 8, !tbaa !101
  %72 = getelementptr inbounds nuw %class.BinaryResource, ptr %19, i32 0, i32 2
  %73 = load ptr, ptr %72, align 8, !tbaa !101
  %74 = icmp eq ptr %73, null
  br i1 %74, label %75, label %77

75:                                               ; preds = %70
  %76 = load ptr, ptr %16, align 8, !tbaa !44
  store i32 7, ptr %76, align 4, !tbaa !45
  br label %93

77:                                               ; preds = %70
  br label %78

78:                                               ; preds = %77
  %79 = getelementptr inbounds nuw %class.BinaryResource, ptr %19, i32 0, i32 2
  %80 = load ptr, ptr %79, align 8, !tbaa !101
  %81 = load ptr, ptr %13, align 8, !tbaa !41
  %82 = load i32, ptr %12, align 4, !tbaa !23
  %83 = zext i32 %82 to i64
  call void @llvm.memcpy.p0.p0.i64(ptr align 1 %80, ptr align 1 %81, i64 %83, i1 false)
  br label %84

84:                                               ; preds = %78
  br label %85

85:                                               ; preds = %84
  br label %93

86:                                               ; preds = %63
  %87 = load i32, ptr @_ZL14gFormatVersion, align 4, !tbaa !23
  %88 = icmp sgt i32 %87, 1
  br i1 %88, label %89, label %92

89:                                               ; preds = %86
  %90 = getelementptr inbounds nuw %struct.SResource, ptr %19, i32 0, i32 3
  store i32 268435456, ptr %90, align 4, !tbaa !33
  %91 = getelementptr inbounds nuw %struct.SResource, ptr %19, i32 0, i32 2
  store i8 1, ptr %91, align 1, !tbaa !32
  br label %92

92:                                               ; preds = %89, %86
  br label %93

93:                                               ; preds = %33, %56, %75, %92, %85
  ret void

94:                                               ; preds = %34
  %95 = load ptr, ptr %17, align 8
  %96 = load i32, ptr %18, align 4
  %97 = insertvalue { ptr, i32 } poison, ptr %95, 0
  %98 = insertvalue { ptr, i32 } %97, i32 %96, 1
  resume { ptr, i32 } %98
}