; Function Attrs: mustprogress uwtable
define dso_local void @_ZN14BinaryResourceC2EP7SRBRootPKcjPhS3_PK7UStringR10UErrorCode(ptr noundef nonnull align 8 dereferenceable(80) initializes((0, 10), (12, 40)) %0, ptr noundef %1, ptr noundef %2, i32 noundef %3, ptr noundef readonly captures(none) %4, ptr noundef readonly %5, ptr noundef %6, ptr noundef nonnull align 4 dereferenceable(4) %7) unnamed_addr #7 align 2 personality ptr @__gxx_personality_v0 {
  tail call void @_ZN9SResourceC2EP7SRBRootPKcaPK7UStringR10UErrorCode(ptr noundef nonnull align 8 dereferenceable(56) %0, ptr noundef %1, ptr noundef %2, i8 noundef signext 1, ptr noundef %6, ptr noundef nonnull align 4 dereferenceable(4) %7)
  store ptr getelementptr inbounds nuw inrange(-16, 64) (i8, ptr @_ZTV14BinaryResource, i64 16), ptr %0, align 8, !tbaa !9
  %9 = getelementptr inbounds nuw i8, ptr %0, i64 56
  store i32 %3, ptr %9, align 8, !tbaa !59
  %10 = getelementptr inbounds nuw i8, ptr %0, i64 64
  %11 = getelementptr inbounds nuw i8, ptr %0, i64 72
  tail call void @llvm.memset.p0.i64(ptr noundef nonnull align 8 dereferenceable(16) %10, i8 0, i64 16, i1 false)
  %12 = load i32, ptr %7, align 4, !tbaa !22
  %13 = icmp slt i32 %12, 1
  br i1 %13, label %16, label %36

14:                                               ; preds = %26, %19
  %15 = landingpad { ptr, i32 }
          cleanup
  tail call void @_ZN9SResourceD2Ev(ptr noundef nonnull align 8 dereferenceable(56) %0) #34
  resume { ptr, i32 } %15

16:                                               ; preds = %8
  %.not19 = icmp eq ptr %5, null
  br i1 %.not19, label %25, label %17

17:                                               ; preds = %16
  %18 = load i8, ptr %5, align 1, !tbaa !4
  %.not20 = icmp eq i8 %18, 0
  br i1 %.not20, label %25, label %19

19:                                               ; preds = %17
  %20 = tail call i64 @strlen(ptr noundef nonnull dereferenceable(1) %5) #32
  %21 = add i64 %20, 1
  %22 = invoke noalias noundef nonnull ptr @_Znam(i64 noundef %21) #36
          to label %23 unwind label %14

23:                                               ; preds = %19
  store ptr %22, ptr %11, align 8, !tbaa !61
  %24 = tail call ptr @strcpy(ptr noundef nonnull dereferenceable(1) %22, ptr noundef nonnull dereferenceable(1) %5) #34
  br label %25

25:                                               ; preds = %23, %17, %16
  %.not21 = icmp eq i32 %3, 0
  br i1 %.not21, label %30, label %26

26:                                               ; preds = %25
  %27 = zext i32 %3 to i64
  %28 = invoke noalias noundef nonnull ptr @_Znam(i64 noundef %27) #36
          to label %29 unwind label %14

29:                                               ; preds = %26
  store ptr %28, ptr %10, align 8, !tbaa !62
  tail call void @llvm.memcpy.p0.p0.i64(ptr nonnull align 1 %28, ptr align 1 %4, i64 %27, i1 false)
  br label %36

30:                                               ; preds = %25
  %31 = load i32, ptr @_ZL14gFormatVersion, align 4, !tbaa !7
  %32 = icmp sgt i32 %31, 1
  br i1 %32, label %33, label %36

33:                                               ; preds = %30
  %34 = getelementptr inbounds nuw i8, ptr %0, i64 12
  store i32 268435456, ptr %34, align 4, !tbaa !20
  %35 = getelementptr inbounds nuw i8, ptr %0, i64 9
  store i8 1, ptr %35, align 1, !tbaa !17
  br label %36

36:                                               ; preds = %30, %33, %8, %29
  ret void
}